target datalayout = "e-m:e-p270:32:32-p271:32:32-p272:64:64-i64:64-i128:128-f80:128-n8:16:32:64-S128"
target triple = "x86_64-pc-linux-gnu"

%struct.ARKodeMemRec = type { ptr, double, ptr, i32, i32, double, double, ptr, i32, double, ptr, i32, i32, ptr, ptr, i32, ptr, ptr, i32, ptr, ptr, ptr, ptr, ptr, ptr, ptr, ptr, ptr, ptr, ptr, ptr, ptr, ptr, ptr, i32, ptr, ptr, i32, ptr, i32, ptr, ptr, ptr, ptr, ptr, ptr, ptr, ptr, ptr, ptr, ptr, ptr, ptr, ptr, ptr, ptr, ptr, ptr, ptr, ptr, ptr, ptr, ptr, ptr, ptr, ptr, i32, ptr, ptr, ptr, ptr, ptr, ptr, ptr, i32, ptr, ptr, ptr, i32, ptr, ptr, ptr, ptr, ptr, ptr, ptr, i32, i32, i32, i32, double, double, double, double, double, double, double, double, double, double, i32, ptr, i64, i32, i32, i32, i32, i64, i64, i32, i64, i64, i64, i64, i64, i64, i64, double, double, double, double, double, i32, double, double, i32, i32, i32, i32, i32, i32, i32, i32, ptr, i32, ptr, ptr, ptr, ptr, i32, i32, i32 }
%struct._generic_SUNLinearSolver = type { ptr, ptr, ptr }
%struct._generic_SUNLinearSolver_Ops = type { ptr, ptr, ptr, ptr, ptr, ptr, ptr, ptr, ptr, ptr, ptr, ptr, ptr, ptr, ptr }
%struct.ARKLsMemRec = type { i32, i32, i32, ptr, ptr, i32, i32, double, double, ptr, ptr, ptr, ptr, ptr, ptr, ptr, i64, double, i64, i64, i64, i64, i64, i64, i64, i64, i64, double, ptr, ptr, ptr, ptr, i32, ptr, ptr, ptr, ptr, i32, ptr, ptr, i32 }

@.str = private unnamed_addr constant [118 x i8] c"generated/home/dtcxzyw/WorkSpace/Projects/compilers/llvm-opt-benchmark/bench/sundials/sundials/src/arkode/arkode_ls.c\00", align 1
@.str.1 = private unnamed_addr constant [27 x i8] c"arkode_mem = NULL illegal.\00", align 1
@.str.2 = private unnamed_addr constant [58 x i8] c"time-stepping module does not require an algebraic solver\00", align 1
@.str.12 = private unnamed_addr constant [45 x i8] c"Time step module is missing implicit RHS fcn\00", align 1
@__func__.ARKodeSetJacTimes = private unnamed_addr constant [18 x i8] c"ARKodeSetJacTimes\00", align 1
@.str.21 = private unnamed_addr constant [69 x i8] c"SUNLinearSolver object does not support user-supplied ATimes routine\00", align 1
@.str.64 = private unnamed_addr constant [30 x i8] c"Linear solver memory is NULL.\00", align 1

; Function Attrs: nounwind uwtable
define i32 @arkLs_AccessLMem(ptr noundef %0, ptr noundef %1, ptr noundef %2) #0 {
  %4 = alloca i32, align 4
  %5 = alloca ptr, align 8
  %6 = alloca ptr, align 8
  %7 = alloca ptr, align 8
  %8 = alloca ptr, align 8
  %9 = alloca i32, align 4
  store ptr %0, ptr %5, align 8, !tbaa !11
  store ptr %1, ptr %6, align 8, !tbaa !155
  store ptr %2, ptr %7, align 8, !tbaa !157
  call void @llvm.lifetime.start.p0(i64 8, ptr %8) #7
  %10 = load ptr, ptr %5, align 8, !tbaa !11
  %11 = getelementptr inbounds nuw %struct.ARKodeMemRec, ptr %10, i32 0, i32 42
  %12 = load ptr, ptr %11, align 8, !tbaa !41
  %13 = load ptr, ptr %5, align 8, !tbaa !11
  %14 = call ptr %12(ptr noundef %13)
  store ptr %14, ptr %8, align 8, !tbaa !3
  %15 = load ptr, ptr %8, align 8, !tbaa !3
  %16 = icmp eq ptr %15, null
  br i1 %16, label %17, label %20

17:                                               ; preds = %3
  %18 = load ptr, ptr %5, align 8, !tbaa !11
  %19 = load ptr, ptr %6, align 8, !tbaa !155
  call void (ptr, i32, i32, ptr, ptr, ptr, ...) @arkProcessError(ptr noundef %18, i32 noundef -2, i32 noundef 4072, ptr noundef %19, ptr noundef @.str, ptr noundef @.str.64)
  store i32 -2, ptr %4, align 4
  store i32 1, ptr %9, align 4
  br label %23

20:                                               ; preds = %3
  %21 = load ptr, ptr %8, align 8, !tbaa !3
  %22 = load ptr, ptr %7, align 8, !tbaa !157
  store ptr %21, ptr %22, align 8, !tbaa !44
  store i32 0, ptr %4, align 4
  store i32 1, ptr %9, align 4
  br label %23

23:                                               ; preds = %20, %17
  call void @llvm.lifetime.end.p0(i64 8, ptr %8) #7
  %24 = load i32, ptr %4, align 4
  ret i32 %24
}

; Function Attrs: nounwind uwtable
define i32 @ARKodeSetJacTimes(ptr noundef %0, ptr noundef %1, ptr noundef %2) #0 {
  %4 = alloca i32, align 4
  %5 = alloca ptr, align 8
  %6 = alloca ptr, align 8
  %7 = alloca ptr, align 8
  %8 = alloca ptr, align 8
  %9 = alloca ptr, align 8
  %10 = alloca i32, align 4
  %11 = alloca i32, align 4
  store ptr %0, ptr %5, align 8, !tbaa !3
  store ptr %1, ptr %6, align 8, !tbaa !3
  store ptr %2, ptr %7, align 8, !tbaa !3
  call void @llvm.lifetime.start.p0(i64 8, ptr %8) #7
  call void @llvm.lifetime.start.p0(i64 8, ptr %9) #7
  call void @llvm.lifetime.start.p0(i64 4, ptr %10) #7
  %12 = load ptr, ptr %5, align 8, !tbaa !3
  %13 = icmp eq ptr %12, null
  br i1 %13, label %14, label %15

14:                                               ; preds = %3
  call void (ptr, i32, i32, ptr, ptr, ptr, ...) @arkProcessError(ptr noundef null, i32 noundef -21, i32 noundef 893, ptr noundef @__func__.ARKodeSetJacTimes, ptr noundef @.str, ptr noundef @.str.1)
  store i32 -21, ptr %4, align 4
  store i32 1, ptr %11, align 4
  br label %83

15:                                               ; preds = %3
  %16 = load ptr, ptr %5, align 8, !tbaa !3
  store ptr %16, ptr %8, align 8, !tbaa !11
  %17 = load ptr, ptr %8, align 8, !tbaa !11
  %18 = getelementptr inbounds nuw %struct.ARKodeMemRec, ptr %17, i32 0, i32 39
  %19 = load i32, ptr %18, align 8, !tbaa !13
  %20 = icmp ne i32 %19, 0
  br i1 %20, label %23, label %21

21:                                               ; preds = %15
  %22 = load ptr, ptr %8, align 8, !tbaa !11
  call void (ptr, i32, i32, ptr, ptr, ptr, ...) @arkProcessError(ptr noundef %22, i32 noundef -48, i32 noundef 902, ptr noundef @__func__.ARKodeSetJacTimes, ptr noundef @.str, ptr noundef @.str.2)
  store i32 -48, ptr %4, align 4
  store i32 1, ptr %11, align 4
  br label %83

23:                                               ; preds = %15
  %24 = load ptr, ptr %8, align 8, !tbaa !11
  %25 = call i32 @arkLs_AccessLMem(ptr noundef %24, ptr noundef @__func__.ARKodeSetJacTimes, ptr noundef %9)
  store i32 %25, ptr %10, align 4, !tbaa !30
  %26 = load i32, ptr %10, align 4, !tbaa !30
  %27 = icmp ne i32 %26, 0
  br i1 %27, label %28, label %30

28:                                               ; preds = %23
  %29 = load i32, ptr %10, align 4, !tbaa !30
  store i32 %29, ptr %4, align 4
  store i32 1, ptr %11, align 4
  br label %83

30:                                               ; preds = %23
  %31 = load ptr, ptr %9, align 8, !tbaa !44
  %32 = getelementptr inbounds nuw %struct.ARKLsMemRec, ptr %31, i32 0, i32 9
  %33 = load ptr, ptr %32, align 8, !tbaa !46
  %34 = getelementptr inbounds nuw %struct._generic_SUNLinearSolver, ptr %33, i32 0, i32 1
  %35 = load ptr, ptr %34, align 8, !tbaa !24
  %36 = getelementptr inbounds nuw %struct._generic_SUNLinearSolver_Ops, ptr %35, i32 0, i32 2
  %37 = load ptr, ptr %36, align 8, !tbaa !39
  %38 = icmp eq ptr %37, null
  br i1 %38, label %39, label %41

39:                                               ; preds = %30
  %40 = load ptr, ptr %8, align 8, !tbaa !11
  call void (ptr, i32, i32, ptr, ptr, ptr, ...) @arkProcessError(ptr noundef %40, i32 noundef -3, i32 noundef 914, ptr noundef @__func__.ARKodeSetJacTimes, ptr noundef @.str, ptr noundef @.str.21)
  store i32 -3, ptr %4, align 4
  store i32 1, ptr %11, align 4
  br label %83

41:                                               ; preds = %30
  %42 = load ptr, ptr %7, align 8, !tbaa !3
  %43 = icmp ne ptr %42, null
  br i1 %43, label %44, label %58

44:                                               ; preds = %41
  %45 = load ptr, ptr %9, align 8, !tbaa !44
  %46 = getelementptr inbounds nuw %struct.ARKLsMemRec, ptr %45, i32 0, i32 32
  store i32 0, ptr %46, align 8, !tbaa !53
  %47 = load ptr, ptr %6, align 8, !tbaa !3
  %48 = load ptr, ptr %9, align 8, !tbaa !44
  %49 = getelementptr inbounds nuw %struct.ARKLsMemRec, ptr %48, i32 0, i32 33
  store ptr %47, ptr %49, align 8, !tbaa !54
  %50 = load ptr, ptr %7, align 8, !tbaa !3
  %51 = load ptr, ptr %9, align 8, !tbaa !44
  %52 = getelementptr inbounds nuw %struct.ARKLsMemRec, ptr %51, i32 0, i32 34
  store ptr %50, ptr %52, align 8, !tbaa !55
  %53 = load ptr, ptr %8, align 8, !tbaa !11
  %54 = getelementptr inbounds nuw %struct.ARKodeMemRec, ptr %53, i32 0, i32 2
  %55 = load ptr, ptr %54, align 8, !tbaa !64
  %56 = load ptr, ptr %9, align 8, !tbaa !44
  %57 = getelementptr inbounds nuw %struct.ARKLsMemRec, ptr %56, i32 0, i32 36
  store ptr %55, ptr %57, align 8, !tbaa !56
  br label %82

58:                                               ; preds = %41
  %59 = load ptr, ptr %9, align 8, !tbaa !44
  %60 = getelementptr inbounds nuw %struct.ARKLsMemRec, ptr %59, i32 0, i32 32
  store i32 1, ptr %60, align 8, !tbaa !53
  %61 = load ptr, ptr %9, align 8, !tbaa !44
  %62 = getelementptr inbounds nuw %struct.ARKLsMemRec, ptr %61, i32 0, i32 33
  store ptr null, ptr %62, align 8, !tbaa !54
  %63 = load ptr, ptr %9, align 8, !tbaa !44
  %64 = getelementptr inbounds nuw %struct.ARKLsMemRec, ptr %63, i32 0, i32 34
  store ptr @arkLsDQJtimes, ptr %64, align 8, !tbaa !55
  %65 = load ptr, ptr %8, align 8, !tbaa !11
  %66 = load ptr, ptr %9, align 8, !tbaa !44
  %67 = getelementptr inbounds nuw %struct.ARKLsMemRec, ptr %66, i32 0, i32 36
  store ptr %65, ptr %67, align 8, !tbaa !56
  %68 = load ptr, ptr %8, align 8, !tbaa !11
  %69 = getelementptr inbounds nuw %struct.ARKodeMemRec, ptr %68, i32 0, i32 43
  %70 = load ptr, ptr %69, align 8, !tbaa !42
  %71 = load ptr, ptr %8, align 8, !tbaa !11
  %72 = call ptr %70(ptr noundef %71)
  %73 = load ptr, ptr %9, align 8, !tbaa !44
  %74 = getelementptr inbounds nuw %struct.ARKLsMemRec, ptr %73, i32 0, i32 35
  store ptr %72, ptr %74, align 8, !tbaa !57
  %75 = load ptr, ptr %9, align 8, !tbaa !44
  %76 = getelementptr inbounds nuw %struct.ARKLsMemRec, ptr %75, i32 0, i32 35
  %77 = load ptr, ptr %76, align 8, !tbaa !57
  %78 = icmp eq ptr %77, null
  br i1 %78, label %79, label %81

79:                                               ; preds = %58
  %80 = load ptr, ptr %8, align 8, !tbaa !11
  call void (ptr, i32, i32, ptr, ptr, ptr, ...) @arkProcessError(ptr noundef %80, i32 noundef -3, i32 noundef 938, ptr noundef @__func__.ARKodeSetJacTimes, ptr noundef @.str, ptr noundef @.str.12)
  store i32 -3, ptr %4, align 4
  store i32 1, ptr %11, align 4
  br label %83

81:                                               ; preds = %58
  br label %82

82:                                               ; preds = %81, %44
  store i32 0, ptr %4, align 4
  store i32 1, ptr %11, align 4
  br label %83

83:                                               ; preds = %82, %79, %39, %28, %21, %14
  call void @llvm.lifetime.end.p0(i64 4, ptr %10) #7
  call void @llvm.lifetime.end.p0(i64 8, ptr %9) #7
  call void @llvm.lifetime.end.p0(i64 8, ptr %8) #7
  %84 = load i32, ptr %4, align 4
  ret i32 %84
}