; Function Attrs: nounwind uwtable
define range(i32 -48, 1) i32 @ARKodeSetJacTimes(ptr noundef %0, ptr noundef %1, ptr noundef %2) local_unnamed_addr #0 {
  %4 = icmp eq ptr %0, null
  br i1 %4, label %5, label %6

5:                                                ; preds = %3
  tail call void (ptr, i32, i32, ptr, ptr, ptr, ...) @arkProcessError(ptr noundef null, i32 noundef -21, i32 noundef 893, ptr noundef nonnull @__func__.ARKodeSetJacTimes, ptr noundef nonnull @.str, ptr noundef nonnull @.str.1) #13
  br label %40

6:                                                ; preds = %3
  %7 = getelementptr inbounds nuw i8, ptr %0, i64 296
  %8 = load i32, ptr %7, align 8, !tbaa !3
  %.not = icmp eq i32 %8, 0
  br i1 %.not, label %9, label %10

9:                                                ; preds = %6
  tail call void (ptr, i32, i32, ptr, ptr, ptr, ...) @arkProcessError(ptr noundef nonnull %0, i32 noundef -48, i32 noundef 902, ptr noundef nonnull @__func__.ARKodeSetJacTimes, ptr noundef nonnull @.str, ptr noundef nonnull @.str.2) #13
  br label %40

10:                                               ; preds = %6
  %11 = getelementptr inbounds nuw i8, ptr %0, i64 320
  %12 = load ptr, ptr %11, align 8, !tbaa !33
  %13 = tail call ptr %12(ptr noundef nonnull %0) #13
  %14 = icmp eq ptr %13, null
  br i1 %14, label %arkLs_AccessLMem.exit, label %15

arkLs_AccessLMem.exit:                            ; preds = %10
  tail call void (ptr, i32, i32, ptr, ptr, ptr, ...) @arkProcessError(ptr noundef nonnull %0, i32 noundef -2, i32 noundef 4072, ptr noundef nonnull @__func__.ARKodeSetJacTimes, ptr noundef nonnull @.str, ptr noundef nonnull @.str.64) #13
  br label %40

15:                                               ; preds = %10
  %16 = getelementptr inbounds nuw i8, ptr %13, i64 56
  %17 = load ptr, ptr %16, align 8, !tbaa !36
  %18 = getelementptr inbounds nuw i8, ptr %17, i64 8
  %19 = load ptr, ptr %18, align 8, !tbaa !17
  %20 = getelementptr inbounds nuw i8, ptr %19, i64 16
  %21 = load ptr, ptr %20, align 8, !tbaa !31
  %22 = icmp eq ptr %21, null
  br i1 %22, label %23, label %24

23:                                               ; preds = %15
  tail call void (ptr, i32, i32, ptr, ptr, ptr, ...) @arkProcessError(ptr noundef nonnull %0, i32 noundef -3, i32 noundef 914, ptr noundef nonnull @__func__.ARKodeSetJacTimes, ptr noundef nonnull @.str, ptr noundef nonnull @.str.21) #13
  br label %40

24:                                               ; preds = %15
  %.not20 = icmp eq ptr %2, null
  %25 = getelementptr inbounds nuw i8, ptr %13, i64 240
  %26 = getelementptr inbounds nuw i8, ptr %13, i64 248
  %27 = getelementptr inbounds nuw i8, ptr %13, i64 256
  br i1 %.not20, label %32, label %28

28:                                               ; preds = %24
  store i32 0, ptr %25, align 8, !tbaa !45
  store ptr %1, ptr %26, align 8, !tbaa !46
  store ptr %2, ptr %27, align 8, !tbaa !47
  %29 = getelementptr inbounds nuw i8, ptr %0, i64 16
  %30 = load ptr, ptr %29, align 8, !tbaa !53
  %31 = getelementptr inbounds nuw i8, ptr %13, i64 272
  store ptr %30, ptr %31, align 8, !tbaa !48
  br label %40

32:                                               ; preds = %24
  store i32 1, ptr %25, align 8, !tbaa !45
  store ptr null, ptr %26, align 8, !tbaa !46
  store ptr @arkLsDQJtimes, ptr %27, align 8, !tbaa !47
  %33 = getelementptr inbounds nuw i8, ptr %13, i64 272
  store ptr %0, ptr %33, align 8, !tbaa !48
  %34 = getelementptr inbounds nuw i8, ptr %0, i64 328
  %35 = load ptr, ptr %34, align 8, !tbaa !34
  %36 = tail call ptr %35(ptr noundef nonnull %0) #13
  %37 = getelementptr inbounds nuw i8, ptr %13, i64 264
  store ptr %36, ptr %37, align 8, !tbaa !49
  %38 = icmp eq ptr %36, null
  br i1 %38, label %39, label %40

39:                                               ; preds = %32
  tail call void (ptr, i32, i32, ptr, ptr, ptr, ...) @arkProcessError(ptr noundef nonnull %0, i32 noundef -3, i32 noundef 938, ptr noundef nonnull @__func__.ARKodeSetJacTimes, ptr noundef nonnull @.str, ptr noundef nonnull @.str.12) #13
  br label %40

40:                                               ; preds = %arkLs_AccessLMem.exit, %28, %32, %39, %23, %9, %5
  %.0 = phi i32 [ -21, %5 ], [ -3, %23 ], [ -3, %39 ], [ -48, %9 ], [ -2, %arkLs_AccessLMem.exit ], [ 0, %32 ], [ 0, %28 ]
  ret i32 %.0
}